(dp0
Vengine
p1
S'pdflatex'
p2
sVpackages
p3
c__builtin__
set
p4
((lp5
Vbabel
p6
aVda
p7
atp8
Rp9
sVfiles_with_guttermarks
p10
g4
((lp11
V/Users/pp01sanne/Documents/Onderwijs/2015_2016/PSYM/psychometrie/generaliseerbaarheid.tex
p12
aS'gen_oplossing.tex'
p13
aV/Users/pp01sanne/Documents/Onderwijs/2015_2016/PSYM/psychometrie/./gen_oplossing.tex
p14
atp15
Rp16
sVsynctex
p17
I01
s.