(dp0
Vengine
p1
S'pdflatex'
p2
sVpackages
p3
c__builtin__
set
p4
((lp5
Vbabel
p6
aVtikz
p7
aVfloat
p8
aVchangepage
p9
aVda
p10
atp11
Rp12
sVfiles_with_guttermarks
p13
g4
((lp14
V/Users/pp01sanne/Documents/Onderwijs/2015_2016/PSYM/psychometrie/GEN/fig_gen2A.tex
p15
aV/Users/pp01sanne/Documents/Onderwijs/2015_2016/PSYM/psychometrie/GEN/./gen_oplossing.tex
p16
aV/Users/pp01sanne/Documents/Onderwijs/2015_2016/PSYM/psychometrie/GEN/./fig_gen2.tex
p17
aV/Users/pp01sanne/Documents/Onderwijs/2015_2016/PSYM/psychometrie/GEN/./generaliseerbaarheid.tex
p18
aS'gen_oplossing.tex'
p19
aV/Users/pp01sanne/Documents/Onderwijs/2015_2016/PSYM/psychometrie/GEN/./fig_gen2A.tex
p20
aV/Users/pp01sanne/Documents/Onderwijs/2015_2016/PSYM/psychometrie/GEN/generaliseerbaarheid.tex
p21
atp22
Rp23
sVsynctex
p24
I01
s.