(dp0
Vengine
p1
S'pdflatex'
p2
sVpackages
p3
c__builtin__
set
p4
((lp5
tp6
Rp7
sVfiles_with_guttermarks
p8
g4
((lp9
V/Users/pp01sanne/Documents/Onderwijs/2015_2016/PSYM/psychometrie/GEN/./fig_gen2A.tex
p10
aV/Users/pp01sanne/Documents/Onderwijs/2015_2016/PSYM/psychometrie/GEN/./fig_gen1.tex
p11
aV/Users/pp01sanne/Documents/Onderwijs/2015_2016/PSYM/psychometrie/GEN/fig_gen1.tex
p12
aV/Users/pp01sanne/Documents/Onderwijs/2015_2016/PSYM/psychometrie/GEN/./generaliseerbaarheid.tex
p13
aV/Users/pp01sanne/Documents/Onderwijs/2015_2016/PSYM/psychometrie/GEN/./fig_gen2.tex
p14
aV/Users/pp01sanne/Documents/Onderwijs/2015_2016/PSYM/psychometrie/GEN/./fig_gen2B.tex
p15
aV/Users/pp01sanne/Documents/Onderwijs/2015_2016/PSYM/psychometrie/GEN/fig_gen2B.tex
p16
aS'generaliseerbaarheid.tex'
p17
aV/Users/pp01sanne/Documents/Onderwijs/2015_2016/PSYM/psychometrie/GEN/generaliseerbaarheid.tex
p18
atp19
Rp20
sVsynctex
p21
I01
s.